   1              		.cpu arm7tdmi
   2              		.fpu softvfp
   3              		.eabi_attribute 20, 1
   4              		.eabi_attribute 21, 1
   5              		.eabi_attribute 23, 3
   6              		.eabi_attribute 24, 1
   7              		.eabi_attribute 25, 1
   8              		.eabi_attribute 26, 1
   9              		.eabi_attribute 30, 6
  10              		.eabi_attribute 18, 4
  11              		.file	"44blib.c"
  21              	.Ltext0:
  22              		.file 1 "../44blib.c"
 3138              		.align	2
 3141              	mallocPt:
 3142 0000 00000000 		.word	Image_RW_Limit
 3143              		.global	restart
 3144              		.bss
 3145              		.align	2
 3148              	restart:
 3149 0000 00000000 		.space	4
 3150              		.global	run
 3151              		.data
 3152              		.align	2
 3155              	run:
 3156 0004 0000000C 		.word	201326592
 3157              		.align	2
 3160              	delayLoopCount:
 3161 0008 90010000 		.word	400
 3162              		.global	__aeabi_idiv
 3163              		.text
 3164              		.align	2
 3165              		.global	Delay
 3167              	Delay:
 3168              	.LFB0:
   1:../44blib.c   **** #include "44b.h"
   2:../44blib.c   **** #include "44blib.h"
   3:../44blib.c   **** #include "def.h"
   4:../44blib.c   **** #include "option.h"
   5:../44blib.c   **** 
   6:../44blib.c   **** #include <stdarg.h>
   7:../44blib.c   **** #include <string.h>
   8:../44blib.c   **** #include <stdio.h>
   9:../44blib.c   **** #include <ctype.h>
  10:../44blib.c   **** 
  11:../44blib.c   **** #define STACKSIZE    0xa00 //SVC satck size(do not use user stack)//
  12:../44blib.c   **** #define HEAPEND     (_ISR_STARTADDRESS-STACKSIZE-0x500) // = 0xc7ff000//
  13:../44blib.c   **** //SVC Stack Area:0xc(e)7ff000-0xc(e)7ffaff//
  14:../44blib.c   **** 
  15:../44blib.c   **** extern char Image_RW_Limit[];
  16:../44blib.c   **** volatile unsigned char *downPt;
  17:../44blib.c   **** unsigned int fileSize;
  18:../44blib.c   **** void *mallocPt=Image_RW_Limit;
  19:../44blib.c   **** 
  20:../44blib.c   **** void (*restart)(void)=(void (*)(void))0x0;
  21:../44blib.c   **** void (*run)(void)=(void (*)(void))DOWNLOAD_ADDRESS;
  22:../44blib.c   **** 
  23:../44blib.c   **** //--------------------------------SYSTEM---------------------------------//
  24:../44blib.c   **** static int delayLoopCount=400;
  25:../44blib.c   **** 
  26:../44blib.c   **** void Delay(int time)
  27:../44blib.c   **** // time=0: adjust the Delay function by WatchDog timer.//
  28:../44blib.c   **** // time>0: the number of loop time//
  29:../44blib.c   **** // 100us resolution.//
  30:../44blib.c   **** {
 3169              		.loc 1 30 0
 3170              		.cfi_startproc
 3171              		@ Function supports interworking.
 3172              		@ args = 0, pretend = 0, frame = 16
 3173              		@ frame_needed = 1, uses_anonymous_args = 0
 3174 0000 0DC0A0E1 		mov	ip, sp
 3175              	.LCFI0:
 3176              		.cfi_def_cfa_register 12
 3177 0004 00D82DE9 		stmfd	sp!, {fp, ip, lr, pc}
 3178 0008 04B04CE2 		sub	fp, ip, #4
 3179              		.cfi_offset 14, -8
 3180              		.cfi_offset 13, -12
 3181              		.cfi_offset 11, -16
 3182              	.LCFI1:
 3183              		.cfi_def_cfa 11, 4
 3184 000c 10D04DE2 		sub	sp, sp, #16
 3185 0010 18000BE5 		str	r0, [fp, #-24]
  31:../44blib.c   **** 	int i,adjust=0;
 3186              		.loc 1 31 0
 3187 0014 0030A0E3 		mov	r3, #0
 3188 0018 14300BE5 		str	r3, [fp, #-20]
  32:../44blib.c   **** 	if(time==0)
 3189              		.loc 1 32 0
 3190 001c 18301BE5 		ldr	r3, [fp, #-24]
 3191 0020 000053E3 		cmp	r3, #0
 3192 0024 2100001A 		bne	.L3
  33:../44blib.c   **** 	{
  34:../44blib.c   **** 		time=200;
 3193              		.loc 1 34 0
 3194 0028 C830A0E3 		mov	r3, #200
 3195 002c 18300BE5 		str	r3, [fp, #-24]
  35:../44blib.c   **** 		adjust=1;
 3196              		.loc 1 35 0
 3197 0030 0130A0E3 		mov	r3, #1
 3198 0034 14300BE5 		str	r3, [fp, #-20]
  36:../44blib.c   **** 		delayLoopCount=400;
 3199              		.loc 1 36 0
 3200 0038 D8309FE5 		ldr	r3, .L8
 3201 003c 192EA0E3 		mov	r2, #400
 3202 0040 002083E5 		str	r2, [r3, #0]
  37:../44blib.c   **** 		rWTCON=((MCLK/1000000-1)<<8)|(2<<3);	// 1M/64,Watch-dog,nRESET,interrupt disable//
 3203              		.loc 1 37 0
 3204 0044 D0309FE5 		ldr	r3, .L8+4
 3205 0048 D0209FE5 		ldr	r2, .L8+8
 3206 004c 002083E5 		str	r2, [r3, #0]
  38:../44blib.c   **** 		rWTDAT=0xffff;
 3207              		.loc 1 38 0
 3208 0050 CC309FE5 		ldr	r3, .L8+12
 3209 0054 CC209FE5 		ldr	r2, .L8+16
 3210 0058 002083E5 		str	r2, [r3, #0]
  39:../44blib.c   **** 		rWTCNT=0xffff;	 
 3211              		.loc 1 39 0
 3212 005c C8309FE5 		ldr	r3, .L8+20
 3213 0060 C0209FE5 		ldr	r2, .L8+16
 3214 0064 002083E5 		str	r2, [r3, #0]
  40:../44blib.c   **** 		rWTCON=((MCLK/1000000-1)<<8)|(2<<3)|(1<<5); // 1M/64,Watch-dog enable,nRESET,interrupt disable //
 3215              		.loc 1 40 0
 3216 0068 AC309FE5 		ldr	r3, .L8+4
 3217 006c BC209FE5 		ldr	r2, .L8+24
 3218 0070 002083E5 		str	r2, [r3, #0]
  41:../44blib.c   **** 	}
  42:../44blib.c   **** 	for(;time>0;time--)
 3219              		.loc 1 42 0
 3220 0074 0D0000EA 		b	.L3
 3221              	.L6:
  43:../44blib.c   **** 		for(i=0;i<delayLoopCount;i++);
 3222              		.loc 1 43 0
 3223 0078 0030A0E3 		mov	r3, #0
 3224 007c 10300BE5 		str	r3, [fp, #-16]
 3225 0080 020000EA 		b	.L4
 3226              	.L5:
 3227              		.loc 1 43 0 is_stmt 0 discriminator 2
 3228 0084 10301BE5 		ldr	r3, [fp, #-16]
 3229 0088 013083E2 		add	r3, r3, #1
 3230 008c 10300BE5 		str	r3, [fp, #-16]
 3231              	.L4:
 3232              		.loc 1 43 0 discriminator 1
 3233 0090 80309FE5 		ldr	r3, .L8
 3234 0094 003093E5 		ldr	r3, [r3, #0]
 3235 0098 10201BE5 		ldr	r2, [fp, #-16]
 3236 009c 030052E1 		cmp	r2, r3
 3237 00a0 F7FFFFBA 		blt	.L5
  42:../44blib.c   **** 	for(;time>0;time--)
 3238              		.loc 1 42 0 is_stmt 1
 3239 00a4 18301BE5 		ldr	r3, [fp, #-24]
 3240 00a8 013043E2 		sub	r3, r3, #1
 3241 00ac 18300BE5 		str	r3, [fp, #-24]
 3242              	.L3:
  42:../44blib.c   **** 	for(;time>0;time--)
 3243              		.loc 1 42 0 is_stmt 0 discriminator 1
 3244 00b0 18301BE5 		ldr	r3, [fp, #-24]
 3245 00b4 000053E3 		cmp	r3, #0
 3246 00b8 EEFFFFCA 		bgt	.L6
  44:../44blib.c   **** 	if(adjust==1)
 3247              		.loc 1 44 0 is_stmt 1
 3248 00bc 14301BE5 		ldr	r3, [fp, #-20]
 3249 00c0 010053E3 		cmp	r3, #1
 3250 00c4 1000001A 		bne	.L1
  45:../44blib.c   **** 	{
  46:../44blib.c   **** 		rWTCON=((MCLK/1000000-1)<<8)|(2<<3);
 3251              		.loc 1 46 0
 3252 00c8 4C309FE5 		ldr	r3, .L8+4
 3253 00cc 4C209FE5 		ldr	r2, .L8+8
 3254 00d0 002083E5 		str	r2, [r3, #0]
  47:../44blib.c   **** 		i=0xffff-rWTCNT;   //  1count/16us?????????//
 3255              		.loc 1 47 0
 3256 00d4 50309FE5 		ldr	r3, .L8+20
 3257 00d8 003093E5 		ldr	r3, [r3, #0]
 3258 00dc FF3C63E2 		rsb	r3, r3, #65280
 3259 00e0 FF3083E2 		add	r3, r3, #255
 3260 00e4 10300BE5 		str	r3, [fp, #-16]
  48:../44blib.c   **** 		delayLoopCount=8000000/(i*64);	//400*100/(i*64/200)   //
 3261              		.loc 1 48 0
 3262 00e8 10301BE5 		ldr	r3, [fp, #-16]
 3263 00ec 0333A0E1 		mov	r3, r3, asl #6
 3264 00f0 3C009FE5 		ldr	r0, .L8+28
 3265 00f4 0310A0E1 		mov	r1, r3
 3266 00f8 FEFFFFEB 		bl	__aeabi_idiv
 3267 00fc 0030A0E1 		mov	r3, r0
 3268 0100 0320A0E1 		mov	r2, r3
 3269 0104 0C309FE5 		ldr	r3, .L8
 3270 0108 002083E5 		str	r2, [r3, #0]
 3271              	.L1:
  49:../44blib.c   **** 	}
  50:../44blib.c   **** }
 3272              		.loc 1 50 0
 3273 010c 0CD04BE2 		sub	sp, fp, #12
 3274 0110 00689DE8 		ldmfd	sp, {fp, sp, lr}
 3275 0114 1EFF2FE1 		bx	lr
 3276              	.L9:
 3277              		.align	2
 3278              	.L8:
 3279 0118 08000000 		.word	delayLoopCount
 3280 011c 0000D301 		.word	30605312
 3281 0120 103F0000 		.word	16144
 3282 0124 0400D301 		.word	30605316
 3283 0128 FFFF0000 		.word	65535
 3284 012c 0800D301 		.word	30605320
 3285 0130 303F0000 		.word	16176
 3286 0134 00127A00 		.word	8000000
 3287              		.cfi_endproc
 3288              	.LFE0:
 3290              		.align	2
 3291              		.global	DelayMs
 3293              	DelayMs:
 3294              	.LFB1:
  51:../44blib.c   **** 
  52:../44blib.c   **** void DelayMs(int ms_time)
  53:../44blib.c   **** {
 3295              		.loc 1 53 0
 3296              		.cfi_startproc
 3297              		@ Function supports interworking.
 3298              		@ args = 0, pretend = 0, frame = 16
 3299              		@ frame_needed = 1, uses_anonymous_args = 0
 3300 0138 0DC0A0E1 		mov	ip, sp
 3301              	.LCFI2:
 3302              		.cfi_def_cfa_register 12
 3303 013c 00D82DE9 		stmfd	sp!, {fp, ip, lr, pc}
 3304 0140 04B04CE2 		sub	fp, ip, #4
 3305              		.cfi_offset 14, -8
 3306              		.cfi_offset 13, -12
 3307              		.cfi_offset 11, -16
 3308              	.LCFI3:
 3309              		.cfi_def_cfa 11, 4
 3310 0144 10D04DE2 		sub	sp, sp, #16
 3311 0148 18000BE5 		str	r0, [fp, #-24]
  54:../44blib.c   **** 	int i;
  55:../44blib.c   **** 	
  56:../44blib.c   **** 	for( i = 0 ; i < 1000*ms_time ; i++ )
 3312              		.loc 1 56 0
 3313 014c 0030A0E3 		mov	r3, #0
 3314 0150 10300BE5 		str	r3, [fp, #-16]
 3315 0154 020000EA 		b	.L11
 3316              	.L12:
 3317              		.loc 1 56 0 is_stmt 0 discriminator 2
 3318 0158 10301BE5 		ldr	r3, [fp, #-16]
 3319 015c 013083E2 		add	r3, r3, #1
 3320 0160 10300BE5 		str	r3, [fp, #-16]
 3321              	.L11:
 3322              		.loc 1 56 0 discriminator 1
 3323 0164 18201BE5 		ldr	r2, [fp, #-24]
 3324 0168 0230A0E1 		mov	r3, r2
 3325 016c 8332A0E1 		mov	r3, r3, asl #5
 3326 0170 033062E0 		rsb	r3, r2, r3
 3327 0174 0331A0E1 		mov	r3, r3, asl #2
 3328 0178 023083E0 		add	r3, r3, r2
 3329 017c 8331A0E1 		mov	r3, r3, asl #3
 3330 0180 0320A0E1 		mov	r2, r3
 3331 0184 10301BE5 		ldr	r3, [fp, #-16]
 3332 0188 030052E1 		cmp	r2, r3
 3333 018c F1FFFFCA 		bgt	.L12
  57:../44blib.c   **** 		;
  58:../44blib.c   **** }
 3334              		.loc 1 58 0 is_stmt 1
 3335 0190 0CD04BE2 		sub	sp, fp, #12
 3336 0194 00689DE8 		ldmfd	sp, {fp, sp, lr}
 3337 0198 1EFF2FE1 		bx	lr
 3338              		.cfi_endproc
 3339              	.LFE1:
 3341              		.align	2
 3342              		.global	Port_Init
 3344              	Port_Init:
 3345              	.LFB2:
  59:../44blib.c   **** 
  60:../44blib.c   **** //------------------------PORTS------------------------------//
  61:../44blib.c   **** void Port_Init(void)
  62:../44blib.c   **** {
 3346              		.loc 1 62 0
 3347              		.cfi_startproc
 3348              		@ Function supports interworking.
 3349              		@ args = 0, pretend = 0, frame = 0
 3350              		@ frame_needed = 1, uses_anonymous_args = 0
 3351 019c 0DC0A0E1 		mov	ip, sp
 3352              	.LCFI4:
 3353              		.cfi_def_cfa_register 12
 3354 01a0 00D82DE9 		stmfd	sp!, {fp, ip, lr, pc}
 3355 01a4 04B04CE2 		sub	fp, ip, #4
 3356              		.cfi_offset 14, -8
 3357              		.cfi_offset 13, -12
 3358              		.cfi_offset 11, -16
 3359              	.LCFI5:
 3360              		.cfi_def_cfa 11, 4
  63:../44blib.c   **** 	//CAUTION:Follow the configuration order for setting the ports. 
  64:../44blib.c   **** 	// 1) setting value 
  65:../44blib.c   **** 	// 2) setting control register 
  66:../44blib.c   **** 	// 3) configure pull-up resistor.  
  67:../44blib.c   **** 
  68:../44blib.c   **** 	//16bit data bus configuration  
  69:../44blib.c   **** 
  70:../44blib.c   **** 	// PORT A GROUP
  71:../44blib.c   **** 	// BIT 	9	8	7	6	5	4	3	2	1	0
  72:../44blib.c   **** 	// 		A24	A23	A22	A21	A20	A19	A18	A17	A16	A0
  73:../44blib.c   **** 	//		0	1	1	1	1	1	1	1	1	1
  74:../44blib.c   **** 	rPCONA = 0x1ff;	
 3361              		.loc 1 74 0
 3362 01a8 00319FE5 		ldr	r3, .L14
 3363 01ac 00219FE5 		ldr	r2, .L14+4
 3364 01b0 002083E5 		str	r2, [r3, #0]
  75:../44blib.c   **** 
  76:../44blib.c   **** 	// PORT B GROUP
  77:../44blib.c   **** 	// BIT 	10		9		8		7		6		5		4		3		2		1		0
  78:../44blib.c   **** 	//		/CS5	/CS4	/CS3	/CS2	/CS1	GPB5	GPB4	/SRAS	/SCAS	SCLK	SCKE
  79:../44blib.c   **** 	//		EXT		NIC		USB		IDE		SMC		NC		NC		Sdram	Sdram	Sdram	Sdram
  80:../44blib.c   **** 	//      1, 		1,   	1,   	1,    	1,    	0,       0,     1,    	1,    	1,   	1	
  81:../44blib.c   **** 	rPDATB = 0x7ff;				
 3365              		.loc 1 81 0
 3366 01b4 FC309FE5 		ldr	r3, .L14+8
 3367 01b8 FC209FE5 		ldr	r2, .L14+12
 3368 01bc 002083E5 		str	r2, [r3, #0]
  82:../44blib.c   **** 	rPCONB = 0x1cf;			// P9-LED1 P10-LED2
 3369              		.loc 1 82 0
 3370 01c0 F8309FE5 		ldr	r3, .L14+16
 3371 01c4 F8209FE5 		ldr	r2, .L14+20
 3372 01c8 002083E5 		str	r2, [r3, #0]
  83:../44blib.c   ****     
  84:../44blib.c   **** 	// PORT C GROUP
  85:../44blib.c   **** 	// BUSWIDTH=16
  86:../44blib.c   **** 	//  PC15	14		13		12		11		10		9		8
  87:../44blib.c   **** 	//	I		I		RXD1	TXD1	I		I		I		I
  88:../44blib.c   **** 	//	NC		NC		Uart1	Uart1	NC		NC		NC		NC
  89:../44blib.c   **** 	//	00		00		11		11		00		00		00		00
  90:../44blib.c   **** 
  91:../44blib.c   **** 	//  PC7		6		5		4		3		2		1		0
  92:../44blib.c   **** 	//   I		I		I		I		I		I		I		I
  93:../44blib.c   **** 	//   NC		NC		NC		NC		IISCLK	IISDI	IISDO	IISLRCK
  94:../44blib.c   **** 	//   00		00		00		00		11		11		11		11
  95:../44blib.c   **** 	rPDATC = 0xff00;
 3373              		.loc 1 95 0
 3374 01cc F4309FE5 		ldr	r3, .L14+24
 3375 01d0 FF2CA0E3 		mov	r2, #65280
 3376 01d4 002083E5 		str	r2, [r3, #0]
  96:../44blib.c   **** 	rPCONC = 0x0ff0ffff;	
 3377              		.loc 1 96 0
 3378 01d8 EC309FE5 		ldr	r3, .L14+28
 3379 01dc EC209FE5 		ldr	r2, .L14+32
 3380 01e0 002083E5 		str	r2, [r3, #0]
  97:../44blib.c   **** 	rPUPC  = 0x30ff;	//PULL UP RESISTOR should be enabled to I/O
 3381              		.loc 1 97 0
 3382 01e4 E8309FE5 		ldr	r3, .L14+36
 3383 01e8 E8209FE5 		ldr	r2, .L14+40
 3384 01ec 002083E5 		str	r2, [r3, #0]
  98:../44blib.c   **** 
  99:../44blib.c   **** 	// PORT D GROUP
 100:../44blib.c   **** 	// PORT D GROUP(I/O OR LCD)
 101:../44blib.c   **** 	// BIT7		6		5		4		3		2		1		0
 102:../44blib.c   **** 	//	VF		VM		VLINE	VCLK	VD3		VD2		VD1		VD0
 103:../44blib.c   **** 	//	00		00		00		00		00		00		00		00
 104:../44blib.c   **** 	rPDATD= 0xff;
 3385              		.loc 1 104 0
 3386 01f0 E4309FE5 		ldr	r3, .L14+44
 3387 01f4 FF20A0E3 		mov	r2, #255
 3388 01f8 002083E5 		str	r2, [r3, #0]
 105:../44blib.c   **** 	rPCOND= 0xaaaa;	
 3389              		.loc 1 105 0
 3390 01fc DC309FE5 		ldr	r3, .L14+48
 3391 0200 DC209FE5 		ldr	r2, .L14+52
 3392 0204 002083E5 		str	r2, [r3, #0]
 106:../44blib.c   **** 	rPUPD = 0x0;
 3393              		.loc 1 106 0
 3394 0208 D8309FE5 		ldr	r3, .L14+56
 3395 020c 0020A0E3 		mov	r2, #0
 3396 0210 002083E5 		str	r2, [r3, #0]
 107:../44blib.c   **** 	// These pins must be set only after CPU's internal LCD controller is enable
 108:../44blib.c   **** 	
 109:../44blib.c   **** 	// PORT E GROUP 
 110:../44blib.c   **** 	// Bit	8		7		6		5		4		3		2		1		0
 111:../44blib.c   **** 	//  	CODECLK	LED4	LED5	LED6	LED7	BEEP	RXD0	TXD0	LcdDisp
 112:../44blib.c   **** 	//  	10		01		01		01		01		01		10		10		01
 113:../44blib.c   **** 	rPDATE	= 0x1ff;
 3397              		.loc 1 113 0
 3398 0214 D0309FE5 		ldr	r3, .L14+60
 3399 0218 94209FE5 		ldr	r2, .L14+4
 3400 021c 002083E5 		str	r2, [r3, #0]
 114:../44blib.c   **** 	rPCONE	= 0x25529;	
 3401              		.loc 1 114 0
 3402 0220 C8309FE5 		ldr	r3, .L14+64
 3403 0224 C8209FE5 		ldr	r2, .L14+68
 3404 0228 002083E5 		str	r2, [r3, #0]
 115:../44blib.c   **** 	rPUPE	= 0x6;
 3405              		.loc 1 115 0
 3406 022c C4309FE5 		ldr	r3, .L14+72
 3407 0230 0620A0E3 		mov	r2, #6
 3408 0234 002083E5 		str	r2, [r3, #0]
 116:../44blib.c   **** 	
 117:../44blib.c   **** 	// PORT F GROUP
 118:../44blib.c   **** 	// Bit8		7		6		5		 4		3		2		1		0
 119:../44blib.c   **** 	// IISCLK	IISDI	IISDO	IISLRCK	Input	Input	Input	IICSDA	IICSCL
 120:../44blib.c   **** 	// 100		100		100		100		00		00		00		10		10
 121:../44blib.c   **** 	rPDATF = 0x0;
 3409              		.loc 1 121 0
 3410 0238 BC309FE5 		ldr	r3, .L14+76
 3411 023c 0020A0E3 		mov	r2, #0
 3412 0240 002083E5 		str	r2, [r3, #0]
 122:../44blib.c   **** 	rPCONF = 0x252a;
 3413              		.loc 1 122 0
 3414 0244 B4309FE5 		ldr	r3, .L14+80
 3415 0248 B4209FE5 		ldr	r2, .L14+84
 3416 024c 002083E5 		str	r2, [r3, #0]
 123:../44blib.c   **** 	rPUPF  = 0x0;
 3417              		.loc 1 123 0
 3418 0250 B0309FE5 		ldr	r3, .L14+88
 3419 0254 0020A0E3 		mov	r2, #0
 3420 0258 002083E5 		str	r2, [r3, #0]
 124:../44blib.c   **** 
 125:../44blib.c   **** 	// PORT G GROUP
 126:../44blib.c   **** 	// BIT7		6		5		4		3		2		1		0
 127:../44blib.c   **** 	// 	INT7	INT6	INT5	INT4	INT3	INT2	INT1	INT0
 128:../44blib.c   **** 	//	S3		S4		S5		S6		NIC		EXT		IDE		USB
 129:../44blib.c   **** 	//	11      11      11      11      11      11      11      11
 130:../44blib.c   **** 	rPDATG = 0xff;
 3421              		.loc 1 130 0
 3422 025c A8309FE5 		ldr	r3, .L14+92
 3423 0260 FF20A0E3 		mov	r2, #255
 3424 0264 002083E5 		str	r2, [r3, #0]
 131:../44blib.c   **** 	rPCONG = 0xffff;
 3425              		.loc 1 131 0
 3426 0268 A0309FE5 		ldr	r3, .L14+96
 3427 026c A0209FE5 		ldr	r2, .L14+100
 3428 0270 002083E5 		str	r2, [r3, #0]
 132:../44blib.c   **** 	rPUPG  = 0x0;		//pull-up portG enabled  
 3429              		.loc 1 132 0
 3430 0274 9C309FE5 		ldr	r3, .L14+104
 3431 0278 0020A0E3 		mov	r2, #0
 3432 027c 002083E5 		str	r2, [r3, #0]
 133:../44blib.c   **** 	rSPUCR = 0x7;  		//D15-D0 pull-up disable
 3433              		.loc 1 133 0
 3434 0280 94309FE5 		ldr	r3, .L14+108
 3435 0284 0720A0E3 		mov	r2, #7
 3436 0288 002083E5 		str	r2, [r3, #0]
 134:../44blib.c   **** 
 135:../44blib.c   **** 	/* Non Cache area */
 136:../44blib.c   **** 	rNCACHBE0=((Non_Cache_End>>12)<<16)|(Non_Cache_Start>>12); 
 3437              		.loc 1 136 0
 3438 028c 8C309FE5 		ldr	r3, .L14+112
 3439 0290 8C209FE5 		ldr	r2, .L14+116
 3440 0294 002083E5 		str	r2, [r3, #0]
 137:../44blib.c   **** 
 138:../44blib.c   **** 	/* Low level default */
 139:../44blib.c   **** 	rEXTINT=0x0;
 3441              		.loc 1 139 0
 3442 0298 88309FE5 		ldr	r3, .L14+120
 3443 029c 0020A0E3 		mov	r2, #0
 3444 02a0 002083E5 		str	r2, [r3, #0]
 140:../44blib.c   **** }
 3445              		.loc 1 140 0
 3446 02a4 0CD04BE2 		sub	sp, fp, #12
 3447 02a8 00689DE8 		ldmfd	sp, {fp, sp, lr}
 3448 02ac 1EFF2FE1 		bx	lr
 3449              	.L15:
 3450              		.align	2
 3451              	.L14:
 3452 02b0 0000D201 		.word	30539776
 3453 02b4 FF010000 		.word	511
 3454 02b8 0C00D201 		.word	30539788
 3455 02bc FF070000 		.word	2047
 3456 02c0 0800D201 		.word	30539784
 3457 02c4 CF010000 		.word	463
 3458 02c8 1400D201 		.word	30539796
 3459 02cc 1000D201 		.word	30539792
 3460 02d0 FFFFF00F 		.word	267452415
 3461 02d4 1800D201 		.word	30539800
 3462 02d8 FF300000 		.word	12543
 3463 02dc 2000D201 		.word	30539808
 3464 02e0 1C00D201 		.word	30539804
 3465 02e4 AAAA0000 		.word	43690
 3466 02e8 2400D201 		.word	30539812
 3467 02ec 2C00D201 		.word	30539820
 3468 02f0 2800D201 		.word	30539816
 3469 02f4 29550200 		.word	152873
 3470 02f8 3000D201 		.word	30539824
 3471 02fc 3800D201 		.word	30539832
 3472 0300 3400D201 		.word	30539828
 3473 0304 2A250000 		.word	9514
 3474 0308 3C00D201 		.word	30539836
 3475 030c 4400D201 		.word	30539844
 3476 0310 4000D201 		.word	30539840
 3477 0314 FFFF0000 		.word	65535
 3478 0318 4800D201 		.word	30539848
 3479 031c 4C00D201 		.word	30539852
 3480 0320 0400C001 		.word	29360132
 3481 0324 002000C0 		.word	-1073733632
 3482 0328 5000D201 		.word	30539856
 3483              		.cfi_endproc
 3484              	.LFE2:
 3486              		.align	2
 3487              		.global	malloc
 3489              	malloc:
 3490              	.LFB3:
 141:../44blib.c   **** 
 142:../44blib.c   **** 
 143:../44blib.c   **** //--------------------------------HEAP---------------------------------//
 144:../44blib.c   **** void * malloc(unsigned nbyte) 
 145:../44blib.c   **** /*Very simple; Use malloc() & free() like Stack*/
 146:../44blib.c   **** //void *mallocPt=Image$$RW$$Limit;
 147:../44blib.c   **** {
 3491              		.loc 1 147 0
 3492              		.cfi_startproc
 3493              		@ Function supports interworking.
 3494              		@ args = 0, pretend = 0, frame = 16
 3495              		@ frame_needed = 1, uses_anonymous_args = 0
 3496 032c 0DC0A0E1 		mov	ip, sp
 3497              	.LCFI6:
 3498              		.cfi_def_cfa_register 12
 3499 0330 00D82DE9 		stmfd	sp!, {fp, ip, lr, pc}
 3500 0334 04B04CE2 		sub	fp, ip, #4
 3501              		.cfi_offset 14, -8
 3502              		.cfi_offset 13, -12
 3503              		.cfi_offset 11, -16
 3504              	.LCFI7:
 3505              		.cfi_def_cfa 11, 4
 3506 0338 10D04DE2 		sub	sp, sp, #16
 3507 033c 18000BE5 		str	r0, [fp, #-24]
 148:../44blib.c   ****     void *returnPt=mallocPt;
 3508              		.loc 1 148 0
 3509 0340 7C309FE5 		ldr	r3, .L19
 3510 0344 003093E5 		ldr	r3, [r3, #0]
 3511 0348 10300BE5 		str	r3, [fp, #-16]
 149:../44blib.c   **** 
 150:../44blib.c   ****     mallocPt= (int *)mallocPt+nbyte/4+((nbyte%4)>0); //to align 4byte
 3512              		.loc 1 150 0
 3513 034c 70309FE5 		ldr	r3, .L19
 3514 0350 002093E5 		ldr	r2, [r3, #0]
 3515 0354 18301BE5 		ldr	r3, [fp, #-24]
 3516 0358 2311A0E1 		mov	r1, r3, lsr #2
 3517 035c 18301BE5 		ldr	r3, [fp, #-24]
 3518 0360 033003E2 		and	r3, r3, #3
 3519 0364 000053E3 		cmp	r3, #0
 3520 0368 0030A003 		moveq	r3, #0
 3521 036c 0130A013 		movne	r3, #1
 3522 0370 033081E0 		add	r3, r1, r3
 3523 0374 0331A0E1 		mov	r3, r3, asl #2
 3524 0378 032082E0 		add	r2, r2, r3
 3525 037c 40309FE5 		ldr	r3, .L19
 3526 0380 002083E5 		str	r2, [r3, #0]
 151:../44blib.c   **** 
 152:../44blib.c   ****     if( (int)mallocPt > HEAPEND )
 3527              		.loc 1 152 0
 3528 0384 38309FE5 		ldr	r3, .L19
 3529 0388 003093E5 		ldr	r3, [r3, #0]
 3530 038c 0320A0E1 		mov	r2, r3
 3531 0390 30309FE5 		ldr	r3, .L19+4
 3532 0394 030052E1 		cmp	r2, r3
 3533 0398 040000DA 		ble	.L17
 153:../44blib.c   ****     {
 154:../44blib.c   **** 		mallocPt=returnPt;
 3534              		.loc 1 154 0
 3535 039c 20309FE5 		ldr	r3, .L19
 3536 03a0 10201BE5 		ldr	r2, [fp, #-16]
 3537 03a4 002083E5 		str	r2, [r3, #0]
 155:../44blib.c   **** 		return NULL;
 3538              		.loc 1 155 0
 3539 03a8 0030A0E3 		mov	r3, #0
 3540 03ac 000000EA 		b	.L18
 3541              	.L17:
 156:../44blib.c   ****     }
 157:../44blib.c   ****     return returnPt;
 3542              		.loc 1 157 0
 3543 03b0 10301BE5 		ldr	r3, [fp, #-16]
 3544              	.L18:
 158:../44blib.c   **** }
 3545              		.loc 1 158 0
 3546 03b4 0300A0E1 		mov	r0, r3
 3547 03b8 0CD04BE2 		sub	sp, fp, #12
 3548 03bc 00689DE8 		ldmfd	sp, {fp, sp, lr}
 3549 03c0 1EFF2FE1 		bx	lr
 3550              	.L20:
 3551              		.align	2
 3552              	.L19:
 3553 03c4 00000000 		.word	mallocPt
 3554 03c8 00F07F0C 		.word	209711104
 3555              		.cfi_endproc
 3556              	.LFE3:
 3558              		.align	2
 3559              		.global	free
 3561              	free:
 3562              	.LFB4:
 159:../44blib.c   **** 
 160:../44blib.c   **** void free(void *pt)
 161:../44blib.c   **** {
 3563              		.loc 1 161 0
 3564              		.cfi_startproc
 3565              		@ Function supports interworking.
 3566              		@ args = 0, pretend = 0, frame = 8
 3567              		@ frame_needed = 1, uses_anonymous_args = 0
 3568 03cc 0DC0A0E1 		mov	ip, sp
 3569              	.LCFI8:
 3570              		.cfi_def_cfa_register 12
 3571 03d0 00D82DE9 		stmfd	sp!, {fp, ip, lr, pc}
 3572 03d4 04B04CE2 		sub	fp, ip, #4
 3573              		.cfi_offset 14, -8
 3574              		.cfi_offset 13, -12
 3575              		.cfi_offset 11, -16
 3576              	.LCFI9:
 3577              		.cfi_def_cfa 11, 4
 3578 03d8 08D04DE2 		sub	sp, sp, #8
 3579 03dc 10000BE5 		str	r0, [fp, #-16]
 162:../44blib.c   ****     mallocPt=pt;
 3580              		.loc 1 162 0
 3581 03e0 10309FE5 		ldr	r3, .L22
 3582 03e4 10201BE5 		ldr	r2, [fp, #-16]
 3583 03e8 002083E5 		str	r2, [r3, #0]
 163:../44blib.c   **** }
 3584              		.loc 1 163 0
 3585 03ec 0CD04BE2 		sub	sp, fp, #12
 3586 03f0 00689DE8 		ldmfd	sp, {fp, sp, lr}
 3587 03f4 1EFF2FE1 		bx	lr
 3588              	.L23:
 3589              		.align	2
 3590              	.L22:
 3591 03f8 00000000 		.word	mallocPt
 3592              		.cfi_endproc
 3593              	.LFE4:
 3595              		.align	2
 3596              		.global	sys_init
 3598              	sys_init:
 3599              	.LFB5:
 164:../44blib.c   **** 
 165:../44blib.c   **** //--------------------------------INIT---------------------------------//
 166:../44blib.c   **** void sys_init()// Interrupt & Port
 167:../44blib.c   **** {
 3600              		.loc 1 167 0
 3601              		.cfi_startproc
 3602              		@ Function supports interworking.
 3603              		@ args = 0, pretend = 0, frame = 0
 3604              		@ frame_needed = 1, uses_anonymous_args = 0
 3605 03fc 0DC0A0E1 		mov	ip, sp
 3606              	.LCFI10:
 3607              		.cfi_def_cfa_register 12
 3608 0400 00D82DE9 		stmfd	sp!, {fp, ip, lr, pc}
 3609 0404 04B04CE2 		sub	fp, ip, #4
 3610              		.cfi_offset 14, -8
 3611              		.cfi_offset 13, -12
 3612              		.cfi_offset 11, -16
 3613              	.LCFI11:
 3614              		.cfi_def_cfa 11, 4
 168:../44blib.c   ****     /* enable interrupt */
 169:../44blib.c   **** 	rINTMOD=0x0;
 3615              		.loc 1 169 0
 3616 0408 4C309FE5 		ldr	r3, .L25
 3617 040c 0020A0E3 		mov	r2, #0
 3618 0410 002083E5 		str	r2, [r3, #0]
 170:../44blib.c   **** 	rINTCON=0x1;
 3619              		.loc 1 170 0
 3620 0414 1E36A0E3 		mov	r3, #31457280
 3621 0418 0120A0E3 		mov	r2, #1
 3622 041c 002083E5 		str	r2, [r3, #0]
 171:../44blib.c   ****     rI_ISPC = 0xffffffff;			/* clear all interrupt pend	*/
 3623              		.loc 1 171 0
 3624 0420 38309FE5 		ldr	r3, .L25+4
 3625 0424 0020E0E3 		mvn	r2, #0
 3626 0428 002083E5 		str	r2, [r3, #0]
 172:../44blib.c   **** 	rEXTINTPND = 0xf;				// clear EXTINTPND reg
 3627              		.loc 1 172 0
 3628 042c 30309FE5 		ldr	r3, .L25+8
 3629 0430 0F20A0E3 		mov	r2, #15
 3630 0434 002083E5 		str	r2, [r3, #0]
 173:../44blib.c   **** 	Port_Init();					/* Initial 44B0X's I/O port */	
 3631              		.loc 1 173 0
 3632 0438 FEFFFFEB 		bl	Port_Init
 174:../44blib.c   **** 	Delay(0);						/* delay time				*/
 3633              		.loc 1 174 0
 3634 043c 0000A0E3 		mov	r0, #0
 3635 0440 FEFFFFEB 		bl	Delay
 175:../44blib.c   **** 	rINTMSK    = ~(BIT_GLOBAL); // Emascara todas las lineas excepto bit global
 3636              		.loc 1 175 0
 3637 0444 1C309FE5 		ldr	r3, .L25+12
 3638 0448 0123E0E3 		mvn	r2, #67108864
 3639 044c 002083E5 		str	r2, [r3, #0]
 176:../44blib.c   **** 
 177:../44blib.c   **** }
 3640              		.loc 1 177 0
 3641 0450 0CD04BE2 		sub	sp, fp, #12
 3642 0454 00689DE8 		ldmfd	sp, {fp, sp, lr}
 3643 0458 1EFF2FE1 		bx	lr
 3644              	.L26:
 3645              		.align	2
 3646              	.L25:
 3647 045c 0800E001 		.word	31457288
 3648 0460 2400E001 		.word	31457316
 3649 0464 5400D201 		.word	30539860
 3650 0468 0C00E001 		.word	31457292
 3651              		.cfi_endproc
 3652              	.LFE5:
 3654              	.Letext0: